target datalayout = "e-m:e-p270:32:32-p271:32:32-p272:64:64-i64:64-i128:128-f80:128-n8:16:32:64-S128"
target triple = "x86_64-pc-linux-gnu"

%struct._packet_info = type { ptr, ptr, i32, i32, %struct.nstime_t, %struct.nstime_t, %struct.nstime_t, i8, ptr, ptr, ptr, ptr, %struct._address, %struct._address, %struct._address, %struct._address, %struct._address, %struct._address, i32, ptr, i8, [3 x i8], %struct.anon, i32, i32, i32, i32, ptr, i8, ptr, ptr, i16, i16, i32, i32, i16, i32, i32, ptr, ptr, ptr, i8, i8, i16, i16, i16, i32, i16, i16, ptr, ptr, ptr, ptr, ptr, i32, i32 }
%struct.nstime_t = type { i64, i32 }
%struct._address = type { i32, i32, ptr, ptr }
%struct.anon = type { i8, [3 x i8] }
%struct.mac_lte_info = type { i8, i8, i8, i16, i16, i16, i16, i8, i8, i16, i8, i16, i8, i8, i8, i8, i8, i8, i32, i32, i32, i32, i32, i8, %union.anon, i32, i8, i8, i16, [20 x i16], [20 x i16] }
%union.anon = type { %struct.mac_lte_dl_phy_info }
%struct.mac_lte_dl_phy_info = type { i8, i8, i8, i8, i8, i8, i8, i8, i8, i8 }

@.str.65 = private unnamed_addr constant [8 x i8] c"mac-lte\00", align 1
@lte_mac_pseudo_hdr.proto_mac_lte = internal global i32 0, align 4
@.str.172 = private unnamed_addr constant [2 x i8] c" \00", align 1
@.str.173 = private unnamed_addr constant [4 x i8] c"FDD\00", align 1
@.str.174 = private unnamed_addr constant [4 x i8] c"TDD\00", align 1
@.str.175 = private unnamed_addr constant [8 x i8] c"NO_RNTI\00", align 1
@.str.176 = private unnamed_addr constant [7 x i8] c"P_RNTI\00", align 1
@.str.177 = private unnamed_addr constant [8 x i8] c"RA_RNTI\00", align 1
@.str.178 = private unnamed_addr constant [7 x i8] c"C_RNTI\00", align 1
@.str.179 = private unnamed_addr constant [8 x i8] c"SI_RNTI\00", align 1
@.str.180 = private unnamed_addr constant [4 x i8] c"SFN\00", align 1

; Function Attrs: null_pointer_is_valid sspstrong uwtable
define internal zeroext i1 @lte_mac_pseudo_hdr(ptr noundef %0, ptr noundef %1, i16 noundef zeroext %2, i32 noundef %3) #0 {
  %5 = alloca i1, align 1
  %6 = alloca ptr, align 8
  %7 = alloca ptr, align 8
  %8 = alloca i16, align 2
  %9 = alloca i32, align 4
  %10 = alloca ptr, align 8
  %11 = alloca ptr, align 8
  %12 = alloca [30 x i8], align 16
  %13 = alloca i32, align 4
  store ptr %0, ptr %6, align 8
  store ptr %1, ptr %7, align 8
  store i16 %2, ptr %8, align 2
  store i32 %3, ptr %9, align 4
  call void @llvm.lifetime.start.p0(i64 8, ptr %10) #9
  call void @llvm.lifetime.start.p0(i64 8, ptr %11) #9
  call void @llvm.lifetime.start.p0(i64 30, ptr %12) #9
  %14 = load i32, ptr @lte_mac_pseudo_hdr.proto_mac_lte, align 4
  %15 = icmp eq i32 %14, 0
  br i1 %15, label %16, label %18

16:                                               ; preds = %4
  %17 = call i32 @proto_get_id_by_filter_name(ptr noundef @.str.65)
  store i32 %17, ptr @lte_mac_pseudo_hdr.proto_mac_lte, align 4
  br label %18

18:                                               ; preds = %16, %4
  %19 = getelementptr inbounds [30 x i8], ptr %12, i64 0, i64 0
  %20 = load ptr, ptr %6, align 8
  %21 = call i64 @g_strlcpy(ptr noundef %19, ptr noundef %20, i64 noundef 30)
  %22 = call ptr @wmem_file_scope()
  %23 = load ptr, ptr %7, align 8
  %24 = load i32, ptr @lte_mac_pseudo_hdr.proto_mac_lte, align 4
  %25 = call ptr @p_get_proto_data(ptr noundef %22, ptr noundef %23, i32 noundef %24, i32 noundef 0)
  store ptr %25, ptr %10, align 8
  %26 = load ptr, ptr %10, align 8
  %27 = icmp ne ptr %26, null
  br i1 %27, label %28, label %29

28:                                               ; preds = %18
  store i1 true, ptr %5, align 1
  store i32 1, ptr %13, align 4
  br label %145

29:                                               ; preds = %18
  %30 = load ptr, ptr %7, align 8
  %31 = getelementptr inbounds nuw %struct._packet_info, ptr %30, i32 0, i32 51
  %32 = load ptr, ptr %31, align 8
  %33 = call noalias ptr @wmem_alloc0(ptr noundef %32, i64 noundef 148) #11
  store ptr %33, ptr %10, align 8
  %34 = getelementptr inbounds [30 x i8], ptr %12, i64 0, i64 0
  %35 = call ptr @strtok(ptr noundef %34, ptr noundef @.str.172) #9
  store ptr %35, ptr %11, align 8
  %36 = load ptr, ptr %11, align 8
  %37 = icmp eq ptr %36, null
  br i1 %37, label %38, label %39

38:                                               ; preds = %29
  store i1 false, ptr %5, align 1
  store i32 1, ptr %13, align 4
  br label %145

39:                                               ; preds = %29
  %40 = load ptr, ptr %11, align 8
  %41 = call i32 @strcmp(ptr noundef %40, ptr noundef @.str.173) #10
  %42 = icmp eq i32 %41, 0
  br i1 %42, label %43, label %46

43:                                               ; preds = %39
  %44 = load ptr, ptr %10, align 8
  %45 = getelementptr inbounds nuw %struct.mac_lte_info, ptr %44, i32 0, i32 0
  store i8 1, ptr %45, align 4
  br label %55

46:                                               ; preds = %39
  %47 = load ptr, ptr %11, align 8
  %48 = call i32 @strcmp(ptr noundef %47, ptr noundef @.str.174) #10
  %49 = icmp eq i32 %48, 0
  br i1 %49, label %50, label %53

50:                                               ; preds = %46
  %51 = load ptr, ptr %10, align 8
  %52 = getelementptr inbounds nuw %struct.mac_lte_info, ptr %51, i32 0, i32 0
  store i8 2, ptr %52, align 4
  br label %54

53:                                               ; preds = %46
  store i1 false, ptr %5, align 1
  store i32 1, ptr %13, align 4
  br label %145

54:                                               ; preds = %50
  br label %55

55:                                               ; preds = %54, %43
  %56 = call ptr @strtok(ptr noundef null, ptr noundef @.str.172) #9
  store ptr %56, ptr %11, align 8
  %57 = load ptr, ptr %11, align 8
  %58 = icmp eq ptr %57, null
  br i1 %58, label %59, label %60

59:                                               ; preds = %55
  store i1 false, ptr %5, align 1
  store i32 1, ptr %13, align 4
  br label %145

60:                                               ; preds = %55
  %61 = load ptr, ptr %11, align 8
  %62 = call i32 @strcmp(ptr noundef %61, ptr noundef @.str.175) #10
  %63 = icmp eq i32 %62, 0
  br i1 %63, label %64, label %67

64:                                               ; preds = %60
  %65 = load ptr, ptr %10, align 8
  %66 = getelementptr inbounds nuw %struct.mac_lte_info, ptr %65, i32 0, i32 2
  store i8 0, ptr %66, align 2
  br label %100

67:                                               ; preds = %60
  %68 = load ptr, ptr %11, align 8
  %69 = call i32 @strcmp(ptr noundef %68, ptr noundef @.str.176) #10
  %70 = icmp eq i32 %69, 0
  br i1 %70, label %71, label %74

71:                                               ; preds = %67
  %72 = load ptr, ptr %10, align 8
  %73 = getelementptr inbounds nuw %struct.mac_lte_info, ptr %72, i32 0, i32 2
  store i8 1, ptr %73, align 2
  br label %99

74:                                               ; preds = %67
  %75 = load ptr, ptr %11, align 8
  %76 = call i32 @strcmp(ptr noundef %75, ptr noundef @.str.177) #10
  %77 = icmp eq i32 %76, 0
  br i1 %77, label %78, label %81

78:                                               ; preds = %74
  %79 = load ptr, ptr %10, align 8
  %80 = getelementptr inbounds nuw %struct.mac_lte_info, ptr %79, i32 0, i32 2
  store i8 2, ptr %80, align 2
  br label %98

81:                                               ; preds = %74
  %82 = load ptr, ptr %11, align 8
  %83 = call i32 @strcmp(ptr noundef %82, ptr noundef @.str.178) #10
  %84 = icmp eq i32 %83, 0
  br i1 %84, label %85, label %88

85:                                               ; preds = %81
  %86 = load ptr, ptr %10, align 8
  %87 = getelementptr inbounds nuw %struct.mac_lte_info, ptr %86, i32 0, i32 2
  store i8 3, ptr %87, align 2
  br label %97

88:                                               ; preds = %81
  %89 = load ptr, ptr %11, align 8
  %90 = call i32 @strcmp(ptr noundef %89, ptr noundef @.str.179) #10
  %91 = icmp eq i32 %90, 0
  br i1 %91, label %92, label %95

92:                                               ; preds = %88
  %93 = load ptr, ptr %10, align 8
  %94 = getelementptr inbounds nuw %struct.mac_lte_info, ptr %93, i32 0, i32 2
  store i8 4, ptr %94, align 2
  br label %96

95:                                               ; preds = %88
  store i1 false, ptr %5, align 1
  store i32 1, ptr %13, align 4
  br label %145

96:                                               ; preds = %92
  br label %97

97:                                               ; preds = %96, %85
  br label %98

98:                                               ; preds = %97, %78
  br label %99

99:                                               ; preds = %98, %71
  br label %100

100:                                              ; preds = %99, %64
  %101 = call ptr @strtok(ptr noundef null, ptr noundef @.str.172) #9
  store ptr %101, ptr %11, align 8
  %102 = load ptr, ptr %11, align 8
  %103 = icmp ne ptr %102, null
  br i1 %103, label %104, label %109

104:                                              ; preds = %100
  %105 = load ptr, ptr %11, align 8
  %106 = load ptr, ptr %10, align 8
  %107 = getelementptr inbounds nuw %struct.mac_lte_info, ptr %106, i32 0, i32 3
  %108 = call zeroext i1 @ws_strtoi16(ptr noundef %105, ptr noundef null, ptr noundef %107)
  br label %110

109:                                              ; preds = %100
  store i1 false, ptr %5, align 1
  store i32 1, ptr %13, align 4
  br label %145

110:                                              ; preds = %104
  %111 = load ptr, ptr %10, align 8
  %112 = getelementptr inbounds nuw %struct.mac_lte_info, ptr %111, i32 0, i32 6
  store i16 0, ptr %112, align 2
  %113 = call ptr @strtok(ptr noundef null, ptr noundef @.str.172) #9
  store ptr %113, ptr %11, align 8
  %114 = load ptr, ptr %11, align 8
  %115 = icmp eq ptr %114, null
  br i1 %115, label %116, label %117

116:                                              ; preds = %110
  store i1 false, ptr %5, align 1
  store i32 1, ptr %13, align 4
  br label %145

117:                                              ; preds = %110
  %118 = load ptr, ptr %11, align 8
  %119 = call i32 @strcmp(ptr noundef %118, ptr noundef @.str.180) #10
  %120 = icmp eq i32 %119, 0
  br i1 %120, label %121, label %131

121:                                              ; preds = %117
  %122 = call ptr @strtok(ptr noundef null, ptr noundef @.str.172) #9
  store ptr %122, ptr %11, align 8
  %123 = load ptr, ptr %11, align 8
  %124 = icmp ne ptr %123, null
  br i1 %124, label %125, label %130

125:                                              ; preds = %121
  %126 = load ptr, ptr %11, align 8
  %127 = load ptr, ptr %10, align 8
  %128 = getelementptr inbounds nuw %struct.mac_lte_info, ptr %127, i32 0, i32 6
  %129 = call zeroext i1 @ws_strtoi16(ptr noundef %126, ptr noundef null, ptr noundef %128)
  br label %130

130:                                              ; preds = %125, %121
  br label %131

131:                                              ; preds = %130, %117
  %132 = load i32, ptr %9, align 4
  %133 = icmp eq i32 %132, 0
  %134 = select i1 %133, i32 0, i32 1
  %135 = trunc i32 %134 to i8
  %136 = load ptr, ptr %10, align 8
  %137 = getelementptr inbounds nuw %struct.mac_lte_info, ptr %136, i32 0, i32 1
  store i8 %135, ptr %137, align 1
  %138 = load i16, ptr %8, align 2
  %139 = load ptr, ptr %10, align 8
  %140 = getelementptr inbounds nuw %struct.mac_lte_info, ptr %139, i32 0, i32 11
  store i16 %138, ptr %140, align 2
  %141 = call ptr @wmem_file_scope()
  %142 = load ptr, ptr %7, align 8
  %143 = load i32, ptr @lte_mac_pseudo_hdr.proto_mac_lte, align 4
  %144 = load ptr, ptr %10, align 8
  call void @p_add_proto_data(ptr noundef %141, ptr noundef %142, i32 noundef %143, i32 noundef 0, ptr noundef %144)
  store i1 true, ptr %5, align 1
  store i32 1, ptr %13, align 4
  br label %145

145:                                              ; preds = %131, %116, %109, %95, %59, %53, %38, %28
  call void @llvm.lifetime.end.p0(i64 30, ptr %12) #9
  call void @llvm.lifetime.end.p0(i64 8, ptr %11) #9
  call void @llvm.lifetime.end.p0(i64 8, ptr %10) #9
  %146 = load i1, ptr %5, align 1
  ret i1 %146
}