; Function Attrs: null_pointer_is_valid sspstrong uwtable
define internal noundef zeroext i1 @lte_mac_pseudo_hdr(ptr noundef %0, ptr noundef %1, i16 noundef zeroext %2, i32 noundef %3) #0 {
  %5 = alloca [30 x i8], align 16
  call void @llvm.lifetime.start.p0(i64 30, ptr nonnull %5) #7
  %6 = load i32, ptr @lte_mac_pseudo_hdr.proto_mac_lte, align 4
  %7 = icmp eq i32 %6, 0
  br i1 %7, label %8, label %10

8:                                                ; preds = %4
  %9 = tail call i32 @proto_get_id_by_filter_name(ptr noundef nonnull @.str.65)
  store i32 %9, ptr @lte_mac_pseudo_hdr.proto_mac_lte, align 4
  br label %10

10:                                               ; preds = %8, %4
  %11 = call i64 @g_strlcpy(ptr noundef nonnull %5, ptr noundef %0, i64 noundef 30)
  %12 = call ptr @wmem_file_scope()
  %13 = load i32, ptr @lte_mac_pseudo_hdr.proto_mac_lte, align 4
  %14 = call ptr @p_get_proto_data(ptr noundef %12, ptr noundef %1, i32 noundef %13, i32 noundef 0)
  %.not = icmp eq ptr %14, null
  br i1 %.not, label %15, label %68

15:                                               ; preds = %10
  %16 = getelementptr inbounds nuw i8, ptr %1, i64 408
  %17 = load ptr, ptr %16, align 8
  %18 = call noalias dereferenceable_or_null(148) ptr @wmem_alloc0(ptr noundef %17, i64 noundef 148) #8
  %19 = call ptr @strtok(ptr noundef nonnull %5, ptr noundef nonnull @.str.172) #7
  %20 = icmp eq ptr %19, null
  br i1 %20, label %68, label %21

21:                                               ; preds = %15
  %22 = call i32 @strcmp(ptr noundef nonnull dereferenceable(1) %19, ptr noundef nonnull dereferenceable(4) @.str.173) #6
  %23 = icmp eq i32 %22, 0
  br i1 %23, label %27, label %24

24:                                               ; preds = %21
  %25 = call i32 @strcmp(ptr noundef nonnull dereferenceable(1) %19, ptr noundef nonnull dereferenceable(4) @.str.174) #6
  %26 = icmp eq i32 %25, 0
  br i1 %26, label %27, label %68

27:                                               ; preds = %24, %21
  %storemerge = phi i8 [ 1, %21 ], [ 2, %24 ]
  store i8 %storemerge, ptr %18, align 4
  %28 = call ptr @strtok(ptr noundef null, ptr noundef nonnull @.str.172) #7
  %29 = icmp eq ptr %28, null
  br i1 %29, label %68, label %30

30:                                               ; preds = %27
  %31 = call i32 @strcmp(ptr noundef nonnull dereferenceable(1) %28, ptr noundef nonnull dereferenceable(8) @.str.175) #6
  %32 = icmp eq i32 %31, 0
  br i1 %32, label %45, label %33

33:                                               ; preds = %30
  %34 = call i32 @strcmp(ptr noundef nonnull dereferenceable(1) %28, ptr noundef nonnull dereferenceable(7) @.str.176) #6
  %35 = icmp eq i32 %34, 0
  br i1 %35, label %45, label %36

36:                                               ; preds = %33
  %37 = call i32 @strcmp(ptr noundef nonnull dereferenceable(1) %28, ptr noundef nonnull dereferenceable(8) @.str.177) #6
  %38 = icmp eq i32 %37, 0
  br i1 %38, label %45, label %39

39:                                               ; preds = %36
  %40 = call i32 @strcmp(ptr noundef nonnull dereferenceable(1) %28, ptr noundef nonnull dereferenceable(7) @.str.178) #6
  %41 = icmp eq i32 %40, 0
  br i1 %41, label %45, label %42

42:                                               ; preds = %39
  %43 = call i32 @strcmp(ptr noundef nonnull dereferenceable(1) %28, ptr noundef nonnull dereferenceable(8) @.str.179) #6
  %44 = icmp eq i32 %43, 0
  br i1 %44, label %45, label %68

45:                                               ; preds = %42, %39, %36, %33, %30
  %.sink = phi i8 [ 0, %30 ], [ 1, %33 ], [ 2, %36 ], [ 3, %39 ], [ 4, %42 ]
  %46 = getelementptr inbounds nuw i8, ptr %18, i64 2
  store i8 %.sink, ptr %46, align 2
  %47 = call ptr @strtok(ptr noundef null, ptr noundef nonnull @.str.172) #7
  %.not40 = icmp eq ptr %47, null
  br i1 %.not40, label %68, label %48

48:                                               ; preds = %45
  %49 = getelementptr inbounds nuw i8, ptr %18, i64 4
  %50 = call zeroext i1 @ws_strtoi16(ptr noundef nonnull %47, ptr noundef null, ptr noundef nonnull %49)
  %51 = getelementptr inbounds nuw i8, ptr %18, i64 10
  store i16 0, ptr %51, align 2
  %52 = call ptr @strtok(ptr noundef null, ptr noundef nonnull @.str.172) #7
  %53 = icmp eq ptr %52, null
  br i1 %53, label %68, label %54

54:                                               ; preds = %48
  %55 = call i32 @strcmp(ptr noundef nonnull dereferenceable(1) %52, ptr noundef nonnull dereferenceable(4) @.str.180) #6
  %56 = icmp eq i32 %55, 0
  br i1 %56, label %57, label %61

57:                                               ; preds = %54
  %58 = call ptr @strtok(ptr noundef null, ptr noundef nonnull @.str.172) #7
  %.not41 = icmp eq ptr %58, null
  br i1 %.not41, label %61, label %59

59:                                               ; preds = %57
  %60 = call zeroext i1 @ws_strtoi16(ptr noundef nonnull %58, ptr noundef null, ptr noundef nonnull %51)
  br label %61

61:                                               ; preds = %57, %59, %54
  %62 = icmp ne i32 %3, 0
  %63 = zext i1 %62 to i8
  %64 = getelementptr inbounds nuw i8, ptr %18, i64 1
  store i8 %63, ptr %64, align 1
  %65 = getelementptr inbounds nuw i8, ptr %18, i64 18
  store i16 %2, ptr %65, align 2
  %66 = call ptr @wmem_file_scope()
  %67 = load i32, ptr @lte_mac_pseudo_hdr.proto_mac_lte, align 4
  call void @p_add_proto_data(ptr noundef %66, ptr noundef %1, i32 noundef %67, i32 noundef 0, ptr noundef %18)
  br label %68

68:                                               ; preds = %48, %45, %42, %27, %24, %15, %10, %61
  %.0 = phi i1 [ true, %61 ], [ true, %10 ], [ false, %15 ], [ false, %24 ], [ false, %27 ], [ false, %42 ], [ false, %45 ], [ false, %48 ]
  call void @llvm.lifetime.end.p0(i64 30, ptr nonnull %5) #7
  ret i1 %.0
}